target datalayout = "e-m:e-p270:32:32-p271:32:32-p272:64:64-i64:64-i128:128-f80:128-n8:16:32:64-S128"
target triple = "x86_64-pc-linux-gnu"

%struct.ARKodeMRIStepMemRec = type { ptr, ptr, i32, i32, i32, i32, i32, ptr, ptr, i32, i32, i32, ptr, i32, i32, i32, i32, i32, ptr, ptr, ptr, ptr, ptr, ptr, ptr, i32, ptr, i32, ptr, double, double, double, double, i32, double, double, double, double, double, double, i32, i64, i32, i32, i32, ptr, ptr, ptr, ptr, ptr, ptr, ptr, ptr, ptr, double, double, double, i64, i64, i64, i64, i64, i64, i32, i32, i32, double, double, ptr, i32, ptr, ptr }
%struct.ARKodeMemRec = type { ptr, double, ptr, i32, i32, double, double, ptr, i32, double, ptr, i32, i32, ptr, ptr, i32, ptr, ptr, i32, ptr, ptr, ptr, ptr, ptr, ptr, ptr, ptr, ptr, ptr, ptr, ptr, ptr, ptr, ptr, i32, ptr, ptr, i32, ptr, i32, ptr, ptr, ptr, ptr, ptr, ptr, ptr, ptr, ptr, ptr, ptr, ptr, ptr, ptr, ptr, ptr, ptr, ptr, ptr, ptr, ptr, ptr, ptr, ptr, ptr, ptr, i32, ptr, ptr, ptr, ptr, ptr, ptr, ptr, i32, ptr, ptr, ptr, i32, ptr, ptr, ptr, ptr, ptr, ptr, ptr, i32, i32, i32, i32, double, double, double, double, double, double, double, double, double, double, i32, ptr, i64, i32, i32, i32, i32, i64, i64, i32, i64, i64, i64, i64, i64, i64, i64, double, double, double, double, double, i32, double, double, i32, i32, i32, i32, i32, i32, i32, i32, ptr, i32, ptr, ptr, ptr, ptr, i32, i32, i32 }
%struct.MRIStepCouplingMem = type { i32, i32, i32, i32, i32, ptr, ptr, ptr, i32, ptr }

@__func__.MRIStepSetCoupling = private unnamed_addr constant [19 x i8] c"MRIStepSetCoupling\00", align 1
@.str = private unnamed_addr constant [126 x i8] c"generated/home/dtcxzyw/WorkSpace/Projects/compilers/llvm-opt-benchmark/bench/sundials/sundials/src/arkode/arkode_mristep_io.c\00", align 1
@.str.1 = private unnamed_addr constant [29 x i8] c"The MRIStepCoupling is NULL.\00", align 1

; Function Attrs: nounwind uwtable
define i32 @MRIStepSetCoupling(ptr noundef %0, ptr noundef %1) #0 {
  %3 = alloca i32, align 4
  %4 = alloca ptr, align 8
  %5 = alloca ptr, align 8
  %6 = alloca i32, align 4
  %7 = alloca ptr, align 8
  %8 = alloca ptr, align 8
  %9 = alloca i64, align 8
  %10 = alloca i64, align 8
  %11 = alloca i32, align 4
  store ptr %0, ptr %4, align 8, !tbaa !3
  store ptr %1, ptr %5, align 8, !tbaa !7
  call void @llvm.lifetime.start.p0(i64 4, ptr %6) #4
  call void @llvm.lifetime.start.p0(i64 8, ptr %7) #4
  call void @llvm.lifetime.start.p0(i64 8, ptr %8) #4
  call void @llvm.lifetime.start.p0(i64 8, ptr %9) #4
  call void @llvm.lifetime.start.p0(i64 8, ptr %10) #4
  %12 = load ptr, ptr %4, align 8, !tbaa !3
  %13 = call i32 @mriStep_AccessARKODEStepMem(ptr noundef %12, ptr noundef @__func__.MRIStepSetCoupling, ptr noundef %7, ptr noundef %8)
  store i32 %13, ptr %6, align 4, !tbaa !9
  %14 = load i32, ptr %6, align 4, !tbaa !9
  %15 = icmp ne i32 %14, 0
  br i1 %15, label %16, label %18

16:                                               ; preds = %2
  %17 = load i32, ptr %6, align 4, !tbaa !9
  store i32 %17, ptr %3, align 4
  store i32 1, ptr %11, align 4
  br label %87

18:                                               ; preds = %2
  %19 = load ptr, ptr %5, align 8, !tbaa !7
  %20 = icmp eq ptr %19, null
  br i1 %20, label %21, label %23

21:                                               ; preds = %18
  %22 = load ptr, ptr %7, align 8, !tbaa !11
  call void (ptr, i32, i32, ptr, ptr, ptr, ...) @arkProcessError(ptr noundef %22, i32 noundef -21, i32 noundef 50, ptr noundef @__func__.MRIStepSetCoupling, ptr noundef @.str, ptr noundef @.str.1)
  store i32 -22, ptr %3, align 4
  store i32 1, ptr %11, align 4
  br label %87

23:                                               ; preds = %18
  %24 = load ptr, ptr %8, align 8, !tbaa !13
  %25 = getelementptr inbounds nuw %struct.ARKodeMRIStepMemRec, ptr %24, i32 0, i32 15
  store i32 0, ptr %25, align 8, !tbaa !15
  %26 = load ptr, ptr %8, align 8, !tbaa !13
  %27 = getelementptr inbounds nuw %struct.ARKodeMRIStepMemRec, ptr %26, i32 0, i32 13
  store i32 0, ptr %27, align 8, !tbaa !25
  %28 = load ptr, ptr %8, align 8, !tbaa !13
  %29 = getelementptr inbounds nuw %struct.ARKodeMRIStepMemRec, ptr %28, i32 0, i32 14
  store i32 0, ptr %29, align 4, !tbaa !26
  %30 = load ptr, ptr %8, align 8, !tbaa !13
  %31 = getelementptr inbounds nuw %struct.ARKodeMRIStepMemRec, ptr %30, i32 0, i32 12
  %32 = load ptr, ptr %31, align 8, !tbaa !27
  call void @MRIStepCoupling_Space(ptr noundef %32, ptr noundef %10, ptr noundef %9)
  %33 = load ptr, ptr %8, align 8, !tbaa !13
  %34 = getelementptr inbounds nuw %struct.ARKodeMRIStepMemRec, ptr %33, i32 0, i32 12
  %35 = load ptr, ptr %34, align 8, !tbaa !27
  call void @MRIStepCoupling_Free(ptr noundef %35)
  %36 = load ptr, ptr %8, align 8, !tbaa !13
  %37 = getelementptr inbounds nuw %struct.ARKodeMRIStepMemRec, ptr %36, i32 0, i32 12
  store ptr null, ptr %37, align 8, !tbaa !27
  %38 = load i64, ptr %10, align 8, !tbaa !28
  %39 = load ptr, ptr %7, align 8, !tbaa !11
  %40 = getelementptr inbounds nuw %struct.ARKodeMemRec, ptr %39, i32 0, i32 116
  %41 = load i64, ptr %40, align 8, !tbaa !29
  %42 = sub nsw i64 %41, %38
  store i64 %42, ptr %40, align 8, !tbaa !29
  %43 = load i64, ptr %9, align 8, !tbaa !28
  %44 = load ptr, ptr %7, align 8, !tbaa !11
  %45 = getelementptr inbounds nuw %struct.ARKodeMemRec, ptr %44, i32 0, i32 115
  %46 = load i64, ptr %45, align 8, !tbaa !36
  %47 = sub nsw i64 %46, %43
  store i64 %47, ptr %45, align 8, !tbaa !36
  %48 = load ptr, ptr %5, align 8, !tbaa !7
  %49 = getelementptr inbounds nuw %struct.MRIStepCouplingMem, ptr %48, i32 0, i32 2
  %50 = load i32, ptr %49, align 8, !tbaa !37
  %51 = load ptr, ptr %8, align 8, !tbaa !13
  %52 = getelementptr inbounds nuw %struct.ARKodeMRIStepMemRec, ptr %51, i32 0, i32 15
  store i32 %50, ptr %52, align 8, !tbaa !15
  %53 = load ptr, ptr %5, align 8, !tbaa !7
  %54 = getelementptr inbounds nuw %struct.MRIStepCouplingMem, ptr %53, i32 0, i32 3
  %55 = load i32, ptr %54, align 4, !tbaa !41
  %56 = load ptr, ptr %8, align 8, !tbaa !13
  %57 = getelementptr inbounds nuw %struct.ARKodeMRIStepMemRec, ptr %56, i32 0, i32 13
  store i32 %55, ptr %57, align 8, !tbaa !25
  %58 = load ptr, ptr %5, align 8, !tbaa !7
  %59 = getelementptr inbounds nuw %struct.MRIStepCouplingMem, ptr %58, i32 0, i32 4
  %60 = load i32, ptr %59, align 8, !tbaa !42
  %61 = load ptr, ptr %8, align 8, !tbaa !13
  %62 = getelementptr inbounds nuw %struct.ARKodeMRIStepMemRec, ptr %61, i32 0, i32 14
  store i32 %60, ptr %62, align 4, !tbaa !26
  %63 = load ptr, ptr %5, align 8, !tbaa !7
  %64 = call ptr @MRIStepCoupling_Copy(ptr noundef %63)
  %65 = load ptr, ptr %8, align 8, !tbaa !13
  %66 = getelementptr inbounds nuw %struct.ARKodeMRIStepMemRec, ptr %65, i32 0, i32 12
  store ptr %64, ptr %66, align 8, !tbaa !27
  %67 = load ptr, ptr %8, align 8, !tbaa !13
  %68 = getelementptr inbounds nuw %struct.ARKodeMRIStepMemRec, ptr %67, i32 0, i32 12
  %69 = load ptr, ptr %68, align 8, !tbaa !27
  %70 = icmp eq ptr %69, null
  br i1 %70, label %71, label %73

71:                                               ; preds = %23
  %72 = load ptr, ptr %7, align 8, !tbaa !11
  call void (ptr, i32, i32, ptr, ptr, ptr, ...) @arkProcessError(ptr noundef %72, i32 noundef -21, i32 noundef 74, ptr noundef @__func__.MRIStepSetCoupling, ptr noundef @.str, ptr noundef @.str.1)
  store i32 -21, ptr %3, align 4
  store i32 1, ptr %11, align 4
  br label %87

73:                                               ; preds = %23
  %74 = load ptr, ptr %8, align 8, !tbaa !13
  %75 = getelementptr inbounds nuw %struct.ARKodeMRIStepMemRec, ptr %74, i32 0, i32 12
  %76 = load ptr, ptr %75, align 8, !tbaa !27
  call void @MRIStepCoupling_Space(ptr noundef %76, ptr noundef %10, ptr noundef %9)
  %77 = load i64, ptr %10, align 8, !tbaa !28
  %78 = load ptr, ptr %7, align 8, !tbaa !11
  %79 = getelementptr inbounds nuw %struct.ARKodeMemRec, ptr %78, i32 0, i32 116
  %80 = load i64, ptr %79, align 8, !tbaa !29
  %81 = add nsw i64 %80, %77
  store i64 %81, ptr %79, align 8, !tbaa !29
  %82 = load i64, ptr %9, align 8, !tbaa !28
  %83 = load ptr, ptr %7, align 8, !tbaa !11
  %84 = getelementptr inbounds nuw %struct.ARKodeMemRec, ptr %83, i32 0, i32 115
  %85 = load i64, ptr %84, align 8, !tbaa !36
  %86 = add nsw i64 %85, %82
  store i64 %86, ptr %84, align 8, !tbaa !36
  store i32 0, ptr %3, align 4
  store i32 1, ptr %11, align 4
  br label %87

87:                                               ; preds = %73, %71, %21, %16
  call void @llvm.lifetime.end.p0(i64 8, ptr %10) #4
  call void @llvm.lifetime.end.p0(i64 8, ptr %9) #4
  call void @llvm.lifetime.end.p0(i64 8, ptr %8) #4
  call void @llvm.lifetime.end.p0(i64 8, ptr %7) #4
  call void @llvm.lifetime.end.p0(i64 4, ptr %6) #4
  %88 = load i32, ptr %3, align 4
  ret i32 %88
}