; Function Attrs: nounwind uwtable
define i32 @MRIStepSetCoupling(ptr noundef %0, ptr noundef %1) local_unnamed_addr #0 {
  %3 = alloca ptr, align 8
  %4 = alloca ptr, align 8
  %5 = alloca i64, align 8
  %6 = alloca i64, align 8
  call void @llvm.lifetime.start.p0(i64 8, ptr nonnull %3) #5
  call void @llvm.lifetime.start.p0(i64 8, ptr nonnull %4) #5
  call void @llvm.lifetime.start.p0(i64 8, ptr nonnull %5) #5
  call void @llvm.lifetime.start.p0(i64 8, ptr nonnull %6) #5
  %7 = call i32 @mriStep_AccessARKODEStepMem(ptr noundef %0, ptr noundef nonnull @__func__.MRIStepSetCoupling, ptr noundef nonnull %3, ptr noundef nonnull %4) #5
  %.not = icmp eq i32 %7, 0
  br i1 %.not, label %8, label %58

8:                                                ; preds = %2
  %9 = icmp eq ptr %1, null
  br i1 %9, label %10, label %12

10:                                               ; preds = %8
  %11 = load ptr, ptr %3, align 8, !tbaa !3
  call void (ptr, i32, i32, ptr, ptr, ptr, ...) @arkProcessError(ptr noundef %11, i32 noundef -21, i32 noundef 50, ptr noundef nonnull @__func__.MRIStepSetCoupling, ptr noundef nonnull @.str, ptr noundef nonnull @.str.1) #5
  br label %58

12:                                               ; preds = %8
  %13 = load ptr, ptr %4, align 8, !tbaa !8
  %14 = getelementptr inbounds nuw i8, ptr %13, i64 88
  store i32 0, ptr %14, align 8, !tbaa !10
  %15 = getelementptr inbounds nuw i8, ptr %13, i64 80
  store i32 0, ptr %15, align 8, !tbaa !22
  %16 = getelementptr inbounds nuw i8, ptr %13, i64 84
  store i32 0, ptr %16, align 4, !tbaa !23
  %17 = getelementptr inbounds nuw i8, ptr %13, i64 72
  %18 = load ptr, ptr %17, align 8, !tbaa !24
  call void @MRIStepCoupling_Space(ptr noundef %18, ptr noundef nonnull %6, ptr noundef nonnull %5) #5
  %19 = load ptr, ptr %4, align 8, !tbaa !8
  %20 = getelementptr inbounds nuw i8, ptr %19, i64 72
  %21 = load ptr, ptr %20, align 8, !tbaa !24
  call void @MRIStepCoupling_Free(ptr noundef %21) #5
  %22 = load ptr, ptr %4, align 8, !tbaa !8
  %23 = getelementptr inbounds nuw i8, ptr %22, i64 72
  store ptr null, ptr %23, align 8, !tbaa !24
  %24 = load i64, ptr %6, align 8, !tbaa !25
  %25 = load ptr, ptr %3, align 8, !tbaa !3
  %26 = getelementptr inbounds nuw i8, ptr %25, i64 880
  %27 = load i64, ptr %26, align 8, !tbaa !26
  %28 = sub nsw i64 %27, %24
  store i64 %28, ptr %26, align 8, !tbaa !26
  %29 = load i64, ptr %5, align 8, !tbaa !25
  %30 = getelementptr inbounds nuw i8, ptr %25, i64 872
  %31 = load i64, ptr %30, align 8, !tbaa !33
  %32 = sub nsw i64 %31, %29
  store i64 %32, ptr %30, align 8, !tbaa !33
  %33 = getelementptr inbounds nuw i8, ptr %1, i64 8
  %34 = load i32, ptr %33, align 8, !tbaa !34
  %35 = getelementptr inbounds nuw i8, ptr %22, i64 88
  store i32 %34, ptr %35, align 8, !tbaa !10
  %36 = getelementptr inbounds nuw i8, ptr %1, i64 12
  %37 = load i32, ptr %36, align 4, !tbaa !38
  %38 = getelementptr inbounds nuw i8, ptr %22, i64 80
  store i32 %37, ptr %38, align 8, !tbaa !22
  %39 = getelementptr inbounds nuw i8, ptr %1, i64 16
  %40 = load i32, ptr %39, align 8, !tbaa !39
  %41 = getelementptr inbounds nuw i8, ptr %22, i64 84
  store i32 %40, ptr %41, align 4, !tbaa !23
  %42 = call ptr @MRIStepCoupling_Copy(ptr noundef nonnull %1) #5
  %43 = load ptr, ptr %4, align 8, !tbaa !8
  %44 = getelementptr inbounds nuw i8, ptr %43, i64 72
  store ptr %42, ptr %44, align 8, !tbaa !24
  %45 = icmp eq ptr %42, null
  br i1 %45, label %46, label %48

46:                                               ; preds = %12
  %47 = load ptr, ptr %3, align 8, !tbaa !3
  call void (ptr, i32, i32, ptr, ptr, ptr, ...) @arkProcessError(ptr noundef %47, i32 noundef -21, i32 noundef 74, ptr noundef nonnull @__func__.MRIStepSetCoupling, ptr noundef nonnull @.str, ptr noundef nonnull @.str.1) #5
  br label %58

48:                                               ; preds = %12
  call void @MRIStepCoupling_Space(ptr noundef nonnull %42, ptr noundef nonnull %6, ptr noundef nonnull %5) #5
  %49 = load i64, ptr %6, align 8, !tbaa !25
  %50 = load ptr, ptr %3, align 8, !tbaa !3
  %51 = getelementptr inbounds nuw i8, ptr %50, i64 880
  %52 = load i64, ptr %51, align 8, !tbaa !26
  %53 = add nsw i64 %52, %49
  store i64 %53, ptr %51, align 8, !tbaa !26
  %54 = load i64, ptr %5, align 8, !tbaa !25
  %55 = getelementptr inbounds nuw i8, ptr %50, i64 872
  %56 = load i64, ptr %55, align 8, !tbaa !33
  %57 = add nsw i64 %56, %54
  store i64 %57, ptr %55, align 8, !tbaa !33
  br label %58

58:                                               ; preds = %2, %48, %46, %10
  %.0 = phi i32 [ -22, %10 ], [ -21, %46 ], [ 0, %48 ], [ %7, %2 ]
  call void @llvm.lifetime.end.p0(i64 8, ptr nonnull %6) #5
  call void @llvm.lifetime.end.p0(i64 8, ptr nonnull %5) #5
  call void @llvm.lifetime.end.p0(i64 8, ptr nonnull %4) #5
  call void @llvm.lifetime.end.p0(i64 8, ptr nonnull %3) #5
  ret i32 %.0
}